; Function Attrs: mustprogress uwtable
define dso_local noundef zeroext i1 @_ZN5vcpkg4JsoneqERKNS0_5ArrayES3_(ptr nocapture noundef nonnull readonly align 8 dereferenceable(24) %0, ptr nocapture noundef nonnull readonly align 8 dereferenceable(24) %1) local_unnamed_addr #8 {
  %3 = getelementptr inbounds i8, ptr %0, i64 8
  %4 = load ptr, ptr %3, align 8
  %5 = load ptr, ptr %0, align 8
  %6 = ptrtoint ptr %4 to i64
  %7 = ptrtoint ptr %5 to i64
  %8 = sub i64 %6, %7
  %9 = getelementptr inbounds i8, ptr %1, i64 8
  %10 = load ptr, ptr %9, align 8
  %11 = load ptr, ptr %1, align 8
  %12 = ptrtoint ptr %10 to i64
  %13 = ptrtoint ptr %11 to i64
  %14 = sub i64 %12, %13
  %15 = icmp eq i64 %8, %14
  br i1 %15, label %16, label %_ZSteqIN5vcpkg4Json5ValueESaIS2_EEbRKSt6vectorIT_T0_ES9_.exit

16:                                               ; preds = %2
  %.not.i6.i.i = icmp eq ptr %5, %4
  br i1 %.not.i6.i.i, label %_ZSteqIN5vcpkg4Json5ValueESaIS2_EEbRKSt6vectorIT_T0_ES9_.exit, label %.lr.ph.i.i

.lr.ph.i.i:                                       ; preds = %16, %.lr.ph.i.i
  %.0.i8.i.i = phi ptr [ %19, %.lr.ph.i.i ], [ %11, %16 ]
  %.08.i7.i.i = phi ptr [ %18, %.lr.ph.i.i ], [ %5, %16 ]
  %17 = tail call noundef zeroext i1 @_ZN5vcpkg4JsoneqERKNS0_5ValueES3_(ptr noundef nonnull align 8 dereferenceable(8) %.08.i7.i.i, ptr noundef nonnull align 8 dereferenceable(8) %.0.i8.i.i)
  %18 = getelementptr inbounds i8, ptr %.08.i7.i.i, i64 8
  %19 = getelementptr inbounds i8, ptr %.0.i8.i.i, i64 8
  %.not.i.i.i = icmp ne ptr %18, %4
  %or.cond.not = select i1 %17, i1 %.not.i.i.i, i1 false
  br i1 %or.cond.not, label %.lr.ph.i.i, label %_ZSteqIN5vcpkg4Json5ValueESaIS2_EEbRKSt6vectorIT_T0_ES9_.exit, !llvm.loop !56

_ZSteqIN5vcpkg4Json5ValueESaIS2_EEbRKSt6vectorIT_T0_ES9_.exit: ; preds = %.lr.ph.i.i, %2, %16
  %20 = phi i1 [ false, %2 ], [ true, %16 ], [ %17, %.lr.ph.i.i ]
  ret i1 %20
}